; Function Attrs: mustprogress nofree norecurse nosync nounwind willreturn memory(write, argmem: readwrite, inaccessiblemem: none) uwtable
define internal void @dpcm_flush(ptr noundef readonly captures(none) %0) #2 {
  %2 = getelementptr inbounds nuw i8, ptr %0, i64 32
  %3 = load ptr, ptr %2, align 8, !tbaa !4
  %4 = getelementptr inbounds nuw i8, ptr %3, i64 512
  %5 = getelementptr inbounds nuw i8, ptr %3, i64 516
  store i32 0, ptr %5, align 4, !tbaa !28
  store i32 0, ptr %4, align 8, !tbaa !28
  ret void
}